; Function Attrs: nounwind uwtable
define zeroext range(i8 0, 2) i8 @l_Array_anyMUnsafe_any___at___private_Lean_Elab_Inductive_0__Lean_Elab_Command_reorderCtorArgs___spec__1(ptr noundef %0, ptr noundef readonly captures(none) %1, i64 noundef %2, i64 noundef %3) local_unnamed_addr #0 {
  %.not33 = icmp eq i64 %2, %3
  br i1 %.not33, label %lean_dec.exit._crit_edge, label %.lr.ph

.lr.ph:                                           ; preds = %4
  %5 = getelementptr inbounds nuw i8, ptr %1, i64 24
  br label %8

6:                                                ; preds = %lean_dec.exit
  %7 = add i64 %.01734, 1
  %.not = icmp eq i64 %7, %3
  br i1 %.not, label %lean_dec.exit._crit_edge, label %8

8:                                                ; preds = %.lr.ph, %6
  %.01734 = phi i64 [ %2, %.lr.ph ], [ %7, %6 ]
  %9 = getelementptr inbounds nuw [0 x ptr], ptr %5, i64 0, i64 %.01734
  %10 = load ptr, ptr %9, align 8, !tbaa !10
  %11 = ptrtoint ptr %10 to i64
  %12 = and i64 %11, 1
  %.not.i25 = icmp eq i64 %12, 0
  br i1 %.not.i25, label %13, label %lean_array_uget.exit

13:                                               ; preds = %8
  %.val.i.i = load i32, ptr %10, align 4, !tbaa !4
  %14 = icmp sgt i32 %.val.i.i, 0
  br i1 %14, label %15, label %17, !prof !9

15:                                               ; preds = %13
  %16 = add nuw i32 %.val.i.i, 1
  store i32 %16, ptr %10, align 4, !tbaa !4
  br label %20

17:                                               ; preds = %13
  %.not.i.i = icmp eq i32 %.val.i.i, 0
  br i1 %.not.i.i, label %20, label %18

18:                                               ; preds = %17
  tail call void @lean_inc_ref_cold(ptr noundef nonnull %10) #6
  br label %20

lean_array_uget.exit:                             ; preds = %8
  %19 = tail call ptr @l_Lean_Expr_fvarId_x21(ptr noundef %10) #6
  br label %lean_dec.exit22

20:                                               ; preds = %15, %17, %18
  %21 = tail call ptr @l_Lean_Expr_fvarId_x21(ptr noundef nonnull %10) #6
  %22 = load i32, ptr %10, align 4, !tbaa !4
  %23 = icmp sgt i32 %22, 1
  br i1 %23, label %24, label %26, !prof !9

24:                                               ; preds = %20
  %25 = add nsw i32 %22, -1
  store i32 %25, ptr %10, align 4, !tbaa !4
  br label %lean_dec.exit22

26:                                               ; preds = %20
  %.not.i = icmp eq i32 %22, 0
  br i1 %.not.i, label %lean_dec.exit22, label %27

27:                                               ; preds = %26
  tail call void @lean_dec_ref_cold(ptr noundef nonnull %10) #6
  br label %lean_dec.exit22

lean_dec.exit22:                                  ; preds = %27, %26, %24, %lean_array_uget.exit
  %28 = phi ptr [ %19, %lean_array_uget.exit ], [ %21, %24 ], [ %21, %26 ], [ %21, %27 ]
  %29 = tail call zeroext i8 @lean_name_eq(ptr noundef %28, ptr noundef %0) #6
  %30 = ptrtoint ptr %28 to i64
  %31 = and i64 %30, 1
  %.not32 = icmp eq i64 %31, 0
  br i1 %.not32, label %32, label %lean_dec.exit

32:                                               ; preds = %lean_dec.exit22
  %33 = load i32, ptr %28, align 4, !tbaa !4
  %34 = icmp sgt i32 %33, 1
  br i1 %34, label %35, label %37, !prof !9

35:                                               ; preds = %32
  %36 = add nsw i32 %33, -1
  store i32 %36, ptr %28, align 4, !tbaa !4
  br label %lean_dec.exit

37:                                               ; preds = %32
  %.not.i23 = icmp eq i32 %33, 0
  br i1 %.not.i23, label %lean_dec.exit, label %38

38:                                               ; preds = %37
  tail call void @lean_dec_ref_cold(ptr noundef nonnull %28) #6
  br label %lean_dec.exit

lean_dec.exit:                                    ; preds = %38, %37, %35, %lean_dec.exit22
  %39 = icmp eq i8 %29, 0
  br i1 %39, label %6, label %lean_dec.exit._crit_edge

lean_dec.exit._crit_edge:                         ; preds = %6, %lean_dec.exit, %4
  %.2.ph = phi i8 [ 0, %4 ], [ 1, %lean_dec.exit ], [ 0, %6 ]
  ret i8 %.2.ph
}